target datalayout = "e-m:e-p270:32:32-p271:32:32-p272:64:64-i64:64-i128:128-f80:128-n8:16:32:64-S128"
target triple = "x86_64-pc-linux-gnu"

%struct.avifRWData = type { ptr, i64 }
%struct.avifRWStream = type { ptr, i64, i64 }
%struct.avifItemPropertyDedup = type { %struct.avifItemPropertyArray, %struct.avifRWStream, %struct.avifRWData, i8 }
%struct.avifItemPropertyArray = type { ptr, i32, i32, i32 }

; Function Attrs: nounwind uwtable
define internal ptr @avifItemPropertyDedupCreate() #0 {
  %1 = alloca ptr, align 8
  %2 = alloca ptr, align 8
  %3 = call ptr @avifAlloc(i64 noundef 72)
  store ptr %3, ptr %2, align 8
  %4 = load ptr, ptr %2, align 8
  %5 = icmp eq ptr %4, null
  br i1 %5, label %6, label %7

6:                                                ; preds = %0
  store ptr null, ptr %1, align 8
  br label %26

7:                                                ; preds = %0
  %8 = load ptr, ptr %2, align 8
  call void @llvm.memset.p0.i64(ptr align 8 %8, i8 0, i64 72, i1 false)
  %9 = load ptr, ptr %2, align 8
  %10 = getelementptr inbounds nuw %struct.avifItemPropertyDedup, ptr %9, i32 0, i32 0
  %11 = call i32 @avifArrayCreate(ptr noundef %10, i32 noundef 24, i32 noundef 8)
  %12 = icmp ne i32 %11, 0
  br i1 %12, label %15, label %13

13:                                               ; preds = %7
  %14 = load ptr, ptr %2, align 8
  call void @avifFree(ptr noundef %14)
  store ptr null, ptr %1, align 8
  br label %26

15:                                               ; preds = %7
  %16 = load ptr, ptr %2, align 8
  %17 = getelementptr inbounds nuw %struct.avifItemPropertyDedup, ptr %16, i32 0, i32 2
  %18 = call i32 @avifRWDataRealloc(ptr noundef %17, i64 noundef 2048)
  %19 = icmp ne i32 %18, 0
  br i1 %19, label %20, label %24

20:                                               ; preds = %15
  %21 = load ptr, ptr %2, align 8
  %22 = getelementptr inbounds nuw %struct.avifItemPropertyDedup, ptr %21, i32 0, i32 0
  call void @avifArrayDestroy(ptr noundef %22)
  %23 = load ptr, ptr %2, align 8
  call void @avifFree(ptr noundef %23)
  store ptr null, ptr %1, align 8
  br label %26

24:                                               ; preds = %15
  %25 = load ptr, ptr %2, align 8
  store ptr %25, ptr %1, align 8
  br label %26

26:                                               ; preds = %24, %20, %13, %6
  %27 = load ptr, ptr %1, align 8
  ret ptr %27
}