; Function Attrs: nounwind uwtable
define internal fastcc ptr @avifItemPropertyDedupCreate() unnamed_addr #1 {
  %1 = tail call ptr @avifAlloc(i64 noundef 72) #13
  %2 = icmp eq ptr %1, null
  br i1 %2, label %9, label %3

3:                                                ; preds = %0
  tail call void @llvm.memset.p0.i64(ptr noundef nonnull align 8 dereferenceable(72) %1, i8 0, i64 72, i1 false)
  %4 = tail call i32 @avifArrayCreate(ptr noundef nonnull %1, i32 noundef 24, i32 noundef 8) #13
  %.not = icmp eq i32 %4, 0
  br i1 %.not, label %.sink.split, label %5

5:                                                ; preds = %3
  %6 = getelementptr inbounds nuw i8, ptr %1, i64 48
  %7 = tail call i32 @avifRWDataRealloc(ptr noundef nonnull %6, i64 noundef 2048) #13
  %.not10 = icmp eq i32 %7, 0
  br i1 %.not10, label %9, label %8

8:                                                ; preds = %5
  tail call void @avifArrayDestroy(ptr noundef nonnull %1) #13
  br label %.sink.split

.sink.split:                                      ; preds = %3, %8
  tail call void @avifFree(ptr noundef nonnull %1) #13
  br label %9

9:                                                ; preds = %.sink.split, %5, %0
  %.0 = phi ptr [ null, %0 ], [ %1, %5 ], [ null, %.sink.split ]
  ret ptr %.0
}